target datalayout = "e-m:e-p270:32:32-p271:32:32-p272:64:64-i64:64-i128:128-f80:128-n8:16:32:64-S128"
target triple = "x86_64-pc-linux-gnu"

%struct.php_file_globals = type { i32, i64, i8, i64, ptr, ptr, ptr, ptr, ptr, ptr, ptr, i32, %struct.hostent, ptr, i64 }
%struct.hostent = type { ptr, ptr, i32, i32, ptr }
%struct._zval_struct = type { %union._zend_value, %union.anon, %union.anon.2 }
%union._zend_value = type { i64 }
%union.anon = type { i32 }
%union.anon.2 = type { i32 }
%struct._zend_execute_data = type { ptr, ptr, ptr, ptr, %struct._zval_struct, ptr, ptr, ptr, ptr }
%struct._php_stream = type { ptr, ptr, %struct._php_stream_filter_chain, %struct._php_stream_filter_chain, ptr, ptr, %struct._zval_struct, i16, [16 x i8], i32, ptr, ptr, ptr, ptr, i64, ptr, i64, i64, i64, i64, ptr }
%struct._php_stream_filter_chain = type { ptr, ptr, ptr }
%struct.anon.0 = type { i8, i8, %union.anon.1 }
%union.anon.1 = type { i16 }

@file_globals = dso_local global %struct.php_file_globals zeroinitializer, align 8
@.str.2 = private unnamed_addr constant [7 x i8] c"stream\00", align 1

; Function Attrs: alwaysinline nounwind uwtable
define internal zeroext i8 @zval_get_type(ptr noundef %0) #7 {
  %2 = alloca ptr, align 8
  store ptr %0, ptr %2, align 8, !tbaa !30
  %3 = load ptr, ptr %2, align 8, !tbaa !30
  %4 = getelementptr inbounds nuw %struct._zval_struct, ptr %3, i32 0, i32 1
  %5 = getelementptr inbounds nuw %struct.anon.0, ptr %4, i32 0, i32 0
  %6 = load i8, ptr %5, align 8, !tbaa !17
  ret i8 %6
}

; Function Attrs: alwaysinline nounwind uwtable
define internal zeroext i1 @zend_parse_arg_resource(ptr noundef %0, ptr noundef %1, i1 noundef zeroext %2) #7 {
  %4 = alloca i1, align 1
  %5 = alloca ptr, align 8
  %6 = alloca ptr, align 8
  %7 = alloca i8, align 1
  store ptr %0, ptr %5, align 8, !tbaa !30
  store ptr %1, ptr %6, align 8, !tbaa !67
  %8 = zext i1 %2 to i8
  store i8 %8, ptr %7, align 1, !tbaa !64
  %9 = load ptr, ptr %5, align 8, !tbaa !30
  %10 = call zeroext i8 @zval_get_type(ptr noundef %9)
  %11 = zext i8 %10 to i32
  %12 = icmp eq i32 %11, 9
  %13 = xor i1 %12, true
  %14 = xor i1 %13, true
  %15 = zext i1 %14 to i32
  %16 = sext i32 %15 to i64
  %17 = call i64 @llvm.expect.i64(i64 %16, i64 1)
  %18 = icmp ne i64 %17, 0
  br i1 %18, label %19, label %22

19:                                               ; preds = %3
  %20 = load ptr, ptr %5, align 8, !tbaa !30
  %21 = load ptr, ptr %6, align 8, !tbaa !67
  store ptr %20, ptr %21, align 8, !tbaa !30
  br label %40

22:                                               ; preds = %3
  %23 = load i8, ptr %7, align 1, !tbaa !64, !range !65, !noundef !66
  %24 = trunc i8 %23 to i1
  br i1 %24, label %25, label %38

25:                                               ; preds = %22
  %26 = load ptr, ptr %5, align 8, !tbaa !30
  %27 = call zeroext i8 @zval_get_type(ptr noundef %26)
  %28 = zext i8 %27 to i32
  %29 = icmp eq i32 %28, 1
  %30 = xor i1 %29, true
  %31 = xor i1 %30, true
  %32 = zext i1 %31 to i32
  %33 = sext i32 %32 to i64
  %34 = call i64 @llvm.expect.i64(i64 %33, i64 1)
  %35 = icmp ne i64 %34, 0
  br i1 %35, label %36, label %38

36:                                               ; preds = %25
  %37 = load ptr, ptr %6, align 8, !tbaa !67
  store ptr null, ptr %37, align 8, !tbaa !30
  br label %39

38:                                               ; preds = %25, %22
  store i1 false, ptr %4, align 1
  br label %41

39:                                               ; preds = %36
  br label %40

40:                                               ; preds = %39, %19
  store i1 true, ptr %4, align 1
  br label %41

41:                                               ; preds = %40, %38
  %42 = load i1, ptr %4, align 1
  ret i1 %42
}

; Function Attrs: nounwind uwtable
define hidden void @zif_pclose(ptr noundef %0, ptr noundef %1) #0 {
  %3 = alloca ptr, align 8
  %4 = alloca ptr, align 8
  %5 = alloca ptr, align 8
  %6 = alloca ptr, align 8
  %7 = alloca i32, align 4
  %8 = alloca i32, align 4
  %9 = alloca i32, align 4
  %10 = alloca i32, align 4
  %11 = alloca i32, align 4
  %12 = alloca ptr, align 8
  %13 = alloca ptr, align 8
  %14 = alloca i32, align 4
  %15 = alloca ptr, align 8
  %16 = alloca i8, align 1
  %17 = alloca i8, align 1
  %18 = alloca i32, align 4
  %19 = alloca i32, align 4
  %20 = alloca ptr, align 8
  store ptr %0, ptr %3, align 8, !tbaa !62
  store ptr %1, ptr %4, align 8, !tbaa !30
  call void @llvm.lifetime.start.p0(i64 8, ptr %5) #14
  call void @llvm.lifetime.start.p0(i64 8, ptr %6) #14
  br label %21

21:                                               ; preds = %2
  call void @llvm.lifetime.start.p0(i64 4, ptr %7) #14
  store i32 0, ptr %7, align 4, !tbaa !4
  call void @llvm.lifetime.start.p0(i64 4, ptr %8) #14
  store i32 1, ptr %8, align 4, !tbaa !4
  call void @llvm.lifetime.start.p0(i64 4, ptr %9) #14
  store i32 1, ptr %9, align 4, !tbaa !4
  call void @llvm.lifetime.start.p0(i64 4, ptr %10) #14
  %22 = load ptr, ptr %3, align 8, !tbaa !62
  %23 = getelementptr inbounds nuw %struct._zend_execute_data, ptr %22, i32 0, i32 4
  %24 = getelementptr inbounds nuw %struct._zval_struct, ptr %23, i32 0, i32 2
  %25 = load i32, ptr %24, align 4, !tbaa !17
  store i32 %25, ptr %10, align 4, !tbaa !4
  call void @llvm.lifetime.start.p0(i64 4, ptr %11) #14
  store i32 0, ptr %11, align 4, !tbaa !4
  call void @llvm.lifetime.start.p0(i64 8, ptr %12) #14
  call void @llvm.lifetime.start.p0(i64 8, ptr %13) #14
  store ptr null, ptr %13, align 8, !tbaa !30
  call void @llvm.lifetime.start.p0(i64 4, ptr %14) #14
  store i32 0, ptr %14, align 4, !tbaa !4
  call void @llvm.lifetime.start.p0(i64 8, ptr %15) #14
  store ptr null, ptr %15, align 8, !tbaa !63
  call void @llvm.lifetime.start.p0(i64 1, ptr %16) #14
  store i8 0, ptr %16, align 1, !tbaa !64
  call void @llvm.lifetime.start.p0(i64 1, ptr %17) #14
  store i8 0, ptr %17, align 1, !tbaa !64
  call void @llvm.lifetime.start.p0(i64 4, ptr %18) #14
  store i32 0, ptr %18, align 4, !tbaa !4
  br label %26

26:                                               ; preds = %21
  %27 = load i32, ptr %10, align 4, !tbaa !4
  %28 = load i32, ptr %8, align 4, !tbaa !4
  %29 = icmp ult i32 %27, %28
  %30 = xor i1 %29, true
  %31 = xor i1 %30, true
  %32 = zext i1 %31 to i32
  %33 = sext i32 %32 to i64
  %34 = call i64 @llvm.expect.i64(i64 %33, i64 0)
  %35 = icmp ne i64 %34, 0
  br i1 %35, label %46, label %36

36:                                               ; preds = %26
  %37 = load i32, ptr %10, align 4, !tbaa !4
  %38 = load i32, ptr %9, align 4, !tbaa !4
  %39 = icmp ugt i32 %37, %38
  %40 = xor i1 %39, true
  %41 = xor i1 %40, true
  %42 = zext i1 %41 to i32
  %43 = sext i32 %42 to i64
  %44 = call i64 @llvm.expect.i64(i64 %43, i64 0)
  %45 = icmp ne i64 %44, 0
  br i1 %45, label %46, label %49

46:                                               ; preds = %36, %26
  %47 = load i32, ptr %8, align 4, !tbaa !4
  %48 = load i32, ptr %9, align 4, !tbaa !4
  call void @zend_wrong_parameters_count_error(i32 noundef %47, i32 noundef %48)
  store i32 1, ptr %18, align 4, !tbaa !4
  br label %112

49:                                               ; preds = %36
  %50 = load ptr, ptr %3, align 8, !tbaa !62
  %51 = getelementptr inbounds %struct._zval_struct, ptr %50, i64 4
  store ptr %51, ptr %12, align 8, !tbaa !30
  %52 = load i32, ptr %11, align 4, !tbaa !4
  %53 = add i32 %52, 1
  store i32 %53, ptr %11, align 4, !tbaa !4
  %54 = load i32, ptr %11, align 4, !tbaa !4
  %55 = load i32, ptr %8, align 4, !tbaa !4
  %56 = icmp ule i32 %54, %55
  br i1 %56, label %62, label %57

57:                                               ; preds = %49
  %58 = load i8, ptr %17, align 1, !tbaa !64, !range !65, !noundef !66
  %59 = trunc i8 %58 to i1
  %60 = zext i1 %59 to i32
  %61 = icmp eq i32 %60, 1
  br label %62

62:                                               ; preds = %57, %49
  %63 = phi i1 [ true, %49 ], [ %61, %57 ]
  call void @llvm.assume(i1 %63)
  %64 = load i32, ptr %11, align 4, !tbaa !4
  %65 = load i32, ptr %8, align 4, !tbaa !4
  %66 = icmp ugt i32 %64, %65
  br i1 %66, label %72, label %67

67:                                               ; preds = %62
  %68 = load i8, ptr %17, align 1, !tbaa !64, !range !65, !noundef !66
  %69 = trunc i8 %68 to i1
  %70 = zext i1 %69 to i32
  %71 = icmp eq i32 %70, 0
  br label %72

72:                                               ; preds = %67, %62
  %73 = phi i1 [ true, %62 ], [ %71, %67 ]
  call void @llvm.assume(i1 %73)
  %74 = load i8, ptr %17, align 1, !tbaa !64, !range !65, !noundef !66
  %75 = trunc i8 %74 to i1
  br i1 %75, label %76, label %88

76:                                               ; preds = %72
  %77 = load i32, ptr %11, align 4, !tbaa !4
  %78 = load i32, ptr %10, align 4, !tbaa !4
  %79 = icmp ugt i32 %77, %78
  %80 = xor i1 %79, true
  %81 = xor i1 %80, true
  %82 = zext i1 %81 to i32
  %83 = sext i32 %82 to i64
  %84 = call i64 @llvm.expect.i64(i64 %83, i64 0)
  %85 = icmp ne i64 %84, 0
  br i1 %85, label %86, label %87

86:                                               ; preds = %76
  br label %112

87:                                               ; preds = %76
  br label %88

88:                                               ; preds = %87, %72
  %89 = load ptr, ptr %12, align 8, !tbaa !30
  %90 = getelementptr inbounds nuw %struct._zval_struct, ptr %89, i32 1
  store ptr %90, ptr %12, align 8, !tbaa !30
  %91 = load ptr, ptr %12, align 8, !tbaa !30
  store ptr %91, ptr %13, align 8, !tbaa !30
  %92 = load ptr, ptr %13, align 8, !tbaa !30
  %93 = call zeroext i1 @zend_parse_arg_resource(ptr noundef %92, ptr noundef %5, i1 noundef zeroext false)
  %94 = xor i1 %93, true
  %95 = xor i1 %94, true
  %96 = xor i1 %95, true
  %97 = zext i1 %96 to i32
  %98 = sext i32 %97 to i64
  %99 = call i64 @llvm.expect.i64(i64 %98, i64 0)
  %100 = icmp ne i64 %99, 0
  br i1 %100, label %101, label %102

101:                                              ; preds = %88
  store i32 14, ptr %14, align 4, !tbaa !4
  store i32 9, ptr %18, align 4, !tbaa !4
  br label %112

102:                                              ; preds = %88
  %103 = load i32, ptr %11, align 4, !tbaa !4
  %104 = load i32, ptr %9, align 4, !tbaa !4
  %105 = icmp eq i32 %103, %104
  br i1 %105, label %109, label %106

106:                                              ; preds = %102
  %107 = load i32, ptr %9, align 4, !tbaa !4
  %108 = icmp eq i32 %107, -1
  br label %109

109:                                              ; preds = %106, %102
  %110 = phi i1 [ true, %102 ], [ %108, %106 ]
  call void @llvm.assume(i1 %110)
  br label %111

111:                                              ; preds = %109
  br label %112

112:                                              ; preds = %111, %101, %86, %46
  %113 = load i32, ptr %18, align 4, !tbaa !4
  %114 = icmp ne i32 %113, 0
  %115 = xor i1 %114, true
  %116 = xor i1 %115, true
  %117 = zext i1 %116 to i32
  %118 = sext i32 %117 to i64
  %119 = call i64 @llvm.expect.i64(i64 %118, i64 0)
  %120 = icmp ne i64 %119, 0
  br i1 %120, label %121, label %127

121:                                              ; preds = %112
  %122 = load i32, ptr %18, align 4, !tbaa !4
  %123 = load i32, ptr %11, align 4, !tbaa !4
  %124 = load ptr, ptr %15, align 8, !tbaa !63
  %125 = load i32, ptr %14, align 4, !tbaa !4
  %126 = load ptr, ptr %13, align 8, !tbaa !30
  call void @zend_wrong_parameter_error(i32 noundef %122, i32 noundef %123, ptr noundef %124, i32 noundef %125, ptr noundef %126)
  store i32 1, ptr %19, align 4
  br label %128

127:                                              ; preds = %112
  store i32 0, ptr %19, align 4
  br label %128

128:                                              ; preds = %127, %121
  call void @llvm.lifetime.end.p0(i64 4, ptr %18) #14
  call void @llvm.lifetime.end.p0(i64 1, ptr %17) #14
  call void @llvm.lifetime.end.p0(i64 1, ptr %16) #14
  call void @llvm.lifetime.end.p0(i64 8, ptr %15) #14
  call void @llvm.lifetime.end.p0(i64 4, ptr %14) #14
  call void @llvm.lifetime.end.p0(i64 8, ptr %13) #14
  call void @llvm.lifetime.end.p0(i64 8, ptr %12) #14
  call void @llvm.lifetime.end.p0(i64 4, ptr %11) #14
  call void @llvm.lifetime.end.p0(i64 4, ptr %10) #14
  call void @llvm.lifetime.end.p0(i64 4, ptr %9) #14
  call void @llvm.lifetime.end.p0(i64 4, ptr %8) #14
  call void @llvm.lifetime.end.p0(i64 4, ptr %7) #14
  %129 = load i32, ptr %19, align 4
  switch i32 %129, label %161 [
    i32 0, label %130
  ]

130:                                              ; preds = %128
  br label %131

131:                                              ; preds = %130
  br label %132

132:                                              ; preds = %131
  br label %133

133:                                              ; preds = %132
  %134 = load ptr, ptr %5, align 8, !tbaa !30
  %135 = getelementptr inbounds nuw %struct._zval_struct, ptr %134, i32 0, i32 0
  %136 = load ptr, ptr %135, align 8, !tbaa !17
  %137 = call i32 @php_file_le_stream()
  %138 = call i32 @php_file_le_pstream()
  %139 = call ptr @zend_fetch_resource2(ptr noundef %136, ptr noundef @.str.2, i32 noundef %137, i32 noundef %138)
  store ptr %139, ptr %6, align 8, !tbaa !27
  %140 = icmp eq ptr %139, null
  br i1 %140, label %141, label %142

141:                                              ; preds = %133
  store i32 1, ptr %19, align 4
  br label %161

142:                                              ; preds = %133
  br label %143

143:                                              ; preds = %142
  br label %144

144:                                              ; preds = %143
  store i32 1, ptr getelementptr inbounds nuw (%struct.php_file_globals, ptr @file_globals, i32 0, i32 11), align 8, !tbaa !110
  %145 = load ptr, ptr %6, align 8, !tbaa !27
  %146 = getelementptr inbounds nuw %struct._php_stream, ptr %145, i32 0, i32 10
  %147 = load ptr, ptr %146, align 8, !tbaa !107
  call void @zend_list_close(ptr noundef %147)
  store i32 0, ptr getelementptr inbounds nuw (%struct.php_file_globals, ptr @file_globals, i32 0, i32 11), align 8, !tbaa !110
  br label %148

148:                                              ; preds = %144
  br label %149

149:                                              ; preds = %148
  call void @llvm.lifetime.start.p0(i64 8, ptr %20) #14
  %150 = load ptr, ptr %4, align 8, !tbaa !30
  store ptr %150, ptr %20, align 8, !tbaa !30
  %151 = load i32, ptr @file_globals, align 8, !tbaa !111
  %152 = sext i32 %151 to i64
  %153 = load ptr, ptr %20, align 8, !tbaa !30
  %154 = getelementptr inbounds nuw %struct._zval_struct, ptr %153, i32 0, i32 0
  store i64 %152, ptr %154, align 8, !tbaa !17
  %155 = load ptr, ptr %20, align 8, !tbaa !30
  %156 = getelementptr inbounds nuw %struct._zval_struct, ptr %155, i32 0, i32 1
  store i32 4, ptr %156, align 8, !tbaa !17
  call void @llvm.lifetime.end.p0(i64 8, ptr %20) #14
  br label %157

157:                                              ; preds = %149
  br label %158

158:                                              ; preds = %157
  store i32 1, ptr %19, align 4
  br label %161

159:                                              ; No predecessors!
  br label %160

160:                                              ; preds = %159
  store i32 0, ptr %19, align 4
  br label %161

161:                                              ; preds = %160, %158, %141, %128
  call void @llvm.lifetime.end.p0(i64 8, ptr %6) #14
  call void @llvm.lifetime.end.p0(i64 8, ptr %5) #14
  %162 = load i32, ptr %19, align 4
  switch i32 %162, label %164 [
    i32 0, label %163
    i32 1, label %163
  ]

163:                                              ; preds = %161, %161
  ret void

164:                                              ; preds = %161
  unreachable
}